target datalayout = "e-m:e-p270:32:32-p271:32:32-p272:64:64-i64:64-i128:128-f80:128-n8:16:32:64-S128"
target triple = "x86_64-pc-linux-gnu"

%struct.bp_creation_ts_t = type { %struct.bp_dtn_time_t, i64 }
%struct.bp_dtn_time_t = type { i64, %struct.nstime_t }
%struct.nstime_t = type { i64, i32 }

; Function Attrs: nounwind null_pointer_is_valid sspstrong uwtable
define i32 @bp_creation_ts_compare(ptr noundef %0, ptr noundef %1, ptr noundef %2) #0 {
  %4 = alloca i32, align 4
  %5 = alloca ptr, align 8
  %6 = alloca ptr, align 8
  %7 = alloca ptr, align 8
  %8 = alloca ptr, align 8
  %9 = alloca ptr, align 8
  %10 = alloca i32, align 4
  store ptr %0, ptr %5, align 8
  store ptr %1, ptr %6, align 8
  store ptr %2, ptr %7, align 8
  call void @llvm.lifetime.start.p0(i64 8, ptr %8) #18
  %11 = load ptr, ptr %5, align 8
  store ptr %11, ptr %8, align 8
  call void @llvm.lifetime.start.p0(i64 8, ptr %9) #18
  %12 = load ptr, ptr %6, align 8
  store ptr %12, ptr %9, align 8
  %13 = load ptr, ptr %8, align 8
  %14 = getelementptr inbounds nuw %struct.bp_creation_ts_t, ptr %13, i32 0, i32 0
  %15 = getelementptr inbounds nuw %struct.bp_dtn_time_t, ptr %14, i32 0, i32 0
  %16 = load i64, ptr %15, align 8
  %17 = load ptr, ptr %9, align 8
  %18 = getelementptr inbounds nuw %struct.bp_creation_ts_t, ptr %17, i32 0, i32 0
  %19 = getelementptr inbounds nuw %struct.bp_dtn_time_t, ptr %18, i32 0, i32 0
  %20 = load i64, ptr %19, align 8
  %21 = icmp ult i64 %16, %20
  br i1 %21, label %22, label %23

22:                                               ; preds = %3
  store i32 -1, ptr %4, align 4
  store i32 1, ptr %10, align 4
  br label %55

23:                                               ; preds = %3
  %24 = load ptr, ptr %8, align 8
  %25 = getelementptr inbounds nuw %struct.bp_creation_ts_t, ptr %24, i32 0, i32 0
  %26 = getelementptr inbounds nuw %struct.bp_dtn_time_t, ptr %25, i32 0, i32 0
  %27 = load i64, ptr %26, align 8
  %28 = load ptr, ptr %9, align 8
  %29 = getelementptr inbounds nuw %struct.bp_creation_ts_t, ptr %28, i32 0, i32 0
  %30 = getelementptr inbounds nuw %struct.bp_dtn_time_t, ptr %29, i32 0, i32 0
  %31 = load i64, ptr %30, align 8
  %32 = icmp ugt i64 %27, %31
  br i1 %32, label %33, label %34

33:                                               ; preds = %23
  store i32 1, ptr %4, align 4
  store i32 1, ptr %10, align 4
  br label %55

34:                                               ; preds = %23
  br label %35

35:                                               ; preds = %34
  %36 = load ptr, ptr %8, align 8
  %37 = getelementptr inbounds nuw %struct.bp_creation_ts_t, ptr %36, i32 0, i32 1
  %38 = load i64, ptr %37, align 8
  %39 = load ptr, ptr %9, align 8
  %40 = getelementptr inbounds nuw %struct.bp_creation_ts_t, ptr %39, i32 0, i32 1
  %41 = load i64, ptr %40, align 8
  %42 = icmp ult i64 %38, %41
  br i1 %42, label %43, label %44

43:                                               ; preds = %35
  store i32 -1, ptr %4, align 4
  store i32 1, ptr %10, align 4
  br label %55

44:                                               ; preds = %35
  %45 = load ptr, ptr %8, align 8
  %46 = getelementptr inbounds nuw %struct.bp_creation_ts_t, ptr %45, i32 0, i32 1
  %47 = load i64, ptr %46, align 8
  %48 = load ptr, ptr %9, align 8
  %49 = getelementptr inbounds nuw %struct.bp_creation_ts_t, ptr %48, i32 0, i32 1
  %50 = load i64, ptr %49, align 8
  %51 = icmp ugt i64 %47, %50
  br i1 %51, label %52, label %53

52:                                               ; preds = %44
  store i32 1, ptr %4, align 4
  store i32 1, ptr %10, align 4
  br label %55

53:                                               ; preds = %44
  br label %54

54:                                               ; preds = %53
  store i32 0, ptr %4, align 4
  store i32 1, ptr %10, align 4
  br label %55

55:                                               ; preds = %54, %52, %43, %33, %22
  call void @llvm.lifetime.end.p0(i64 8, ptr %9) #18
  call void @llvm.lifetime.end.p0(i64 8, ptr %8) #18
  %56 = load i32, ptr %4, align 4
  ret i32 %56
}