; Function Attrs: mustprogress nofree norecurse nosync nounwind null_pointer_is_valid sspstrong willreturn memory(argmem: read) uwtable
define range(i32 -1, 2) i32 @bp_creation_ts_compare(ptr noundef readonly captures(none) %0, ptr noundef readonly captures(none) %1, ptr noundef readnone captures(none) %2) local_unnamed_addr #0 {
  %4 = load i64, ptr %0, align 8
  %5 = load i64, ptr %1, align 8
  %6 = icmp ult i64 %4, %5
  br i1 %6, label %17, label %7

7:                                                ; preds = %3
  %8 = icmp ugt i64 %4, %5
  br i1 %8, label %17, label %9

9:                                                ; preds = %7
  %10 = getelementptr inbounds nuw i8, ptr %0, i64 24
  %11 = load i64, ptr %10, align 8
  %12 = getelementptr inbounds nuw i8, ptr %1, i64 24
  %13 = load i64, ptr %12, align 8
  %14 = icmp ult i64 %11, %13
  br i1 %14, label %17, label %15

15:                                               ; preds = %9
  %16 = icmp ugt i64 %11, %13
  %. = zext i1 %16 to i32
  br label %17

17:                                               ; preds = %15, %9, %7, %3
  %.0 = phi i32 [ -1, %3 ], [ 1, %7 ], [ -1, %9 ], [ %., %15 ]
  ret i32 %.0
}